target datalayout = "e-m:e-p270:32:32-p271:32:32-p272:64:64-i64:64-i128:128-f80:128-n8:16:32:64-S128"
target triple = "x86_64-pc-linux-gnu"

%struct.CodedBitstreamContext = type { ptr, ptr, ptr, ptr, i32, i32, i32, ptr, ptr, ptr, ptr, i64 }
%struct.CodedBitstreamH2645Context = type { i32, i32, %struct.H2645Packet }
%struct.H2645Packet = type { ptr, %struct.H2645RBSP, i32, i32, i32 }
%struct.H2645RBSP = type { ptr, ptr, i32, i32 }
%struct.CodedBitstreamUnit = type { i32, ptr, i64, i64, ptr, ptr, ptr }
%struct.H266RawNALUnitHeader = type { i8, i8, i8, i8 }
%struct.CodedBitstreamH266Context = type { %struct.CodedBitstreamH2645Context, [16 x ptr], [16 x ptr], [64 x ptr], ptr, ptr }
%struct.H266RawExtensionData = type { ptr, ptr, i64 }
%struct.H266RawPPS = type { %struct.H266RawNALUnitHeader, i8, i8, i8, i16, i16, i8, i16, i16, i16, i16, i8, i16, i16, i16, i16, i8, i8, i8, i16, i8, [1000 x i16], i8, i8, i8, [30 x i16], [990 x i16], i8, i8, i8, i16, i8, [1000 x i16], [1000 x i16], [1000 x i16], [1000 x [990 x i16]], [1000 x i16], i8, i8, [2 x i8], i8, i8, i8, i8, i16, i8, i8, i8, i8, i8, i8, i8, i8, i8, i8, [6 x i8], [6 x i8], [6 x i8], i8, i8, i8, i8, i8, i8, i8, i8, i8, i8, i8, i8, i8, i8, i8, i8, i8, i8, %struct.H266RawExtensionData, i16, i16, i16, [1000 x i16], [1000 x i16], [1000 x i16], [30 x i16], [990 x i16], [1000 x i16], [1000 x i16] }

@.str = private unnamed_addr constant [30 x i8] c"Assertion %s failed at %s:%d\0A\00", align 1
@.str.3 = private unnamed_addr constant [23 x i8] c"libavcodec/cbs_h2645.c\00", align 1
@.str.114 = private unnamed_addr constant [18 x i8] c"unit->content_ref\00", align 1

; Function Attrs: nounwind uwtable
define internal i32 @cbs_h266_replace_pps(ptr noundef %0, ptr noundef %1) #0 {
  %3 = alloca i32, align 4
  %4 = alloca ptr, align 8
  %5 = alloca ptr, align 8
  %6 = alloca ptr, align 8
  %7 = alloca ptr, align 8
  %8 = alloca i32, align 4
  %9 = alloca i32, align 4
  %10 = alloca i32, align 4
  store ptr %0, ptr %4, align 8, !tbaa !4
  store ptr %1, ptr %5, align 8, !tbaa !49
  call void @llvm.lifetime.start.p0(i64 8, ptr %6) #11
  %11 = load ptr, ptr %4, align 8, !tbaa !4
  %12 = getelementptr inbounds nuw %struct.CodedBitstreamContext, ptr %11, i32 0, i32 2
  %13 = load ptr, ptr %12, align 8, !tbaa !23
  store ptr %13, ptr %6, align 8, !tbaa !156
  call void @llvm.lifetime.start.p0(i64 8, ptr %7) #11
  %14 = load ptr, ptr %5, align 8, !tbaa !49
  %15 = getelementptr inbounds nuw %struct.CodedBitstreamUnit, ptr %14, i32 0, i32 5
  %16 = load ptr, ptr %15, align 8, !tbaa !54
  store ptr %16, ptr %7, align 8, !tbaa !134
  call void @llvm.lifetime.start.p0(i64 4, ptr %8) #11
  %17 = load ptr, ptr %7, align 8, !tbaa !134
  %18 = getelementptr inbounds nuw %struct.H266RawPPS, ptr %17, i32 0, i32 1
  %19 = load i8, ptr %18, align 4, !tbaa !1138
  %20 = zext i8 %19 to i32
  store i32 %20, ptr %8, align 4, !tbaa !11
  call void @llvm.lifetime.start.p0(i64 4, ptr %9) #11
  %21 = load ptr, ptr %4, align 8, !tbaa !4
  %22 = load ptr, ptr %5, align 8, !tbaa !49
  %23 = call i32 @ff_cbs_make_unit_refcounted(ptr noundef %21, ptr noundef %22)
  store i32 %23, ptr %9, align 4, !tbaa !11
  %24 = load i32, ptr %9, align 4, !tbaa !11
  %25 = icmp slt i32 %24, 0
  br i1 %25, label %26, label %28

26:                                               ; preds = %2
  %27 = load i32, ptr %9, align 4, !tbaa !11
  store i32 %27, ptr %3, align 4
  store i32 1, ptr %10, align 4
  br label %46

28:                                               ; preds = %2
  br label %29

29:                                               ; preds = %28
  %30 = load ptr, ptr %5, align 8, !tbaa !49
  %31 = getelementptr inbounds nuw %struct.CodedBitstreamUnit, ptr %30, i32 0, i32 6
  %32 = load ptr, ptr %31, align 8, !tbaa !244
  %33 = icmp ne ptr %32, null
  br i1 %33, label %35, label %34

34:                                               ; preds = %29
  call void (ptr, i32, ptr, ...) @av_log(ptr noundef null, i32 noundef 0, ptr noundef @.str, ptr noundef @.str.114, ptr noundef @.str.3, i32 noundef 798)
  call void @abort() #12
  unreachable

35:                                               ; preds = %29
  br label %36

36:                                               ; preds = %35
  br label %37

37:                                               ; preds = %36
  %38 = load ptr, ptr %6, align 8, !tbaa !156
  %39 = getelementptr inbounds nuw %struct.CodedBitstreamH266Context, ptr %38, i32 0, i32 3
  %40 = load i32, ptr %8, align 4, !tbaa !11
  %41 = zext i32 %40 to i64
  %42 = getelementptr inbounds nuw [64 x ptr], ptr %39, i64 0, i64 %41
  %43 = load ptr, ptr %5, align 8, !tbaa !49
  %44 = getelementptr inbounds nuw %struct.CodedBitstreamUnit, ptr %43, i32 0, i32 6
  %45 = load ptr, ptr %44, align 8, !tbaa !244
  call void @av_refstruct_replace(ptr noundef %42, ptr noundef %45)
  store i32 0, ptr %3, align 4
  store i32 1, ptr %10, align 4
  br label %46

46:                                               ; preds = %37, %26
  call void @llvm.lifetime.end.p0(i64 4, ptr %9) #11
  call void @llvm.lifetime.end.p0(i64 4, ptr %8) #11
  call void @llvm.lifetime.end.p0(i64 8, ptr %7) #11
  call void @llvm.lifetime.end.p0(i64 8, ptr %6) #11
  %47 = load i32, ptr %3, align 4
  ret i32 %47
}