; Function Attrs: nounwind uwtable
define internal fastcc range(i32 -2147483648, 1) i32 @cbs_h266_replace_pps(ptr noundef %0, ptr noundef %1) unnamed_addr #0 {
  %3 = getelementptr inbounds nuw i8, ptr %0, i64 16
  %4 = load ptr, ptr %3, align 8, !tbaa !18
  %5 = getelementptr inbounds nuw i8, ptr %1, i64 40
  %6 = load ptr, ptr %5, align 8, !tbaa !62
  %7 = getelementptr inbounds nuw i8, ptr %6, i64 4
  %8 = load i8, ptr %7, align 4, !tbaa !704
  %9 = tail call i32 @ff_cbs_make_unit_refcounted(ptr noundef %0, ptr noundef %1) #11
  %10 = icmp slt i32 %9, 0
  br i1 %10, label %19, label %11

11:                                               ; preds = %2
  %12 = getelementptr inbounds nuw i8, ptr %1, i64 48
  %13 = load ptr, ptr %12, align 8, !tbaa !112
  %.not = icmp eq ptr %13, null
  br i1 %.not, label %14, label %15

14:                                               ; preds = %11
  tail call void (ptr, i32, ptr, ...) @av_log(ptr noundef null, i32 noundef 0, ptr noundef nonnull @.str, ptr noundef nonnull @.str.114, ptr noundef nonnull @.str.3, i32 noundef 798) #11
  tail call void @abort() #12
  unreachable

15:                                               ; preds = %11
  %16 = getelementptr inbounds nuw i8, ptr %4, i64 312
  %17 = zext i8 %8 to i64
  %18 = getelementptr inbounds nuw [64 x ptr], ptr %16, i64 0, i64 %17
  tail call void @av_refstruct_replace(ptr noundef nonnull %18, ptr noundef nonnull %13) #11
  br label %19

19:                                               ; preds = %2, %15
  %.0 = phi i32 [ 0, %15 ], [ %9, %2 ]
  ret i32 %.0
}